target datalayout = "e-m:e-p270:32:32-p271:32:32-p272:64:64-i64:64-i128:128-f80:128-n8:16:32:64-S128"
target triple = "x86_64-pc-linux-gnu"

%struct.Model = type { [16 x i32], [16 x i32], i32, i32, i32, i32, i32 }

; Function Attrs: nounwind uwtable
define internal void @model_update(ptr noundef %0, i32 noundef %1) #1 {
  %3 = alloca ptr, align 8
  %4 = alloca i32, align 4
  %5 = alloca i32, align 4
  %6 = alloca i32, align 4
  %7 = alloca i32, align 4
  %8 = alloca i32, align 4
  store ptr %0, ptr %3, align 8, !tbaa !74
  store i32 %1, ptr %4, align 4, !tbaa !38
  call void @llvm.lifetime.start.p0(i64 4, ptr %5) #8
  call void @llvm.lifetime.start.p0(i64 4, ptr %6) #8
  store i32 0, ptr %6, align 4, !tbaa !38
  call void @llvm.lifetime.start.p0(i64 4, ptr %7) #8
  %9 = load ptr, ptr %3, align 8, !tbaa !74
  %10 = getelementptr inbounds nuw %struct.Model, ptr %9, i32 0, i32 0
  %11 = load i32, ptr %4, align 4, !tbaa !38
  %12 = sext i32 %11 to i64
  %13 = getelementptr inbounds [16 x i32], ptr %10, i64 0, i64 %12
  %14 = load i32, ptr %13, align 4, !tbaa !38
  %15 = add nsw i32 %14, 1
  store i32 %15, ptr %13, align 4, !tbaa !38
  %16 = load ptr, ptr %3, align 8, !tbaa !74
  %17 = getelementptr inbounds nuw %struct.Model, ptr %16, i32 0, i32 6
  %18 = load i32, ptr %17, align 4, !tbaa !85
  %19 = add nsw i32 %18, -1
  store i32 %19, ptr %17, align 4, !tbaa !85
  %20 = load ptr, ptr %3, align 8, !tbaa !74
  %21 = getelementptr inbounds nuw %struct.Model, ptr %20, i32 0, i32 6
  %22 = load i32, ptr %21, align 4, !tbaa !85
  %23 = icmp ne i32 %22, 0
  br i1 %23, label %24, label %25

24:                                               ; preds = %2
  store i32 1, ptr %8, align 4
  br label %133

25:                                               ; preds = %2
  %26 = load ptr, ptr %3, align 8, !tbaa !74
  %27 = getelementptr inbounds nuw %struct.Model, ptr %26, i32 0, i32 4
  %28 = load i32, ptr %27, align 4, !tbaa !84
  %29 = load ptr, ptr %3, align 8, !tbaa !74
  %30 = getelementptr inbounds nuw %struct.Model, ptr %29, i32 0, i32 3
  %31 = load i32, ptr %30, align 4, !tbaa !82
  %32 = add nsw i32 %31, %28
  store i32 %32, ptr %30, align 4, !tbaa !82
  %33 = load ptr, ptr %3, align 8, !tbaa !74
  %34 = getelementptr inbounds nuw %struct.Model, ptr %33, i32 0, i32 3
  %35 = load i32, ptr %34, align 4, !tbaa !82
  %36 = icmp sgt i32 %35, 32768
  br i1 %36, label %37, label %74

37:                                               ; preds = %25
  %38 = load ptr, ptr %3, align 8, !tbaa !74
  %39 = getelementptr inbounds nuw %struct.Model, ptr %38, i32 0, i32 3
  store i32 0, ptr %39, align 4, !tbaa !82
  store i32 0, ptr %5, align 4, !tbaa !38
  br label %40

40:                                               ; preds = %70, %37
  %41 = load i32, ptr %5, align 4, !tbaa !38
  %42 = load ptr, ptr %3, align 8, !tbaa !74
  %43 = getelementptr inbounds nuw %struct.Model, ptr %42, i32 0, i32 2
  %44 = load i32, ptr %43, align 4, !tbaa !76
  %45 = icmp slt i32 %41, %44
  br i1 %45, label %46, label %73

46:                                               ; preds = %40
  %47 = load ptr, ptr %3, align 8, !tbaa !74
  %48 = getelementptr inbounds nuw %struct.Model, ptr %47, i32 0, i32 0
  %49 = load i32, ptr %5, align 4, !tbaa !38
  %50 = sext i32 %49 to i64
  %51 = getelementptr inbounds [16 x i32], ptr %48, i64 0, i64 %50
  %52 = load i32, ptr %51, align 4, !tbaa !38
  %53 = add nsw i32 %52, 1
  %54 = ashr i32 %53, 1
  %55 = load ptr, ptr %3, align 8, !tbaa !74
  %56 = getelementptr inbounds nuw %struct.Model, ptr %55, i32 0, i32 0
  %57 = load i32, ptr %5, align 4, !tbaa !38
  %58 = sext i32 %57 to i64
  %59 = getelementptr inbounds [16 x i32], ptr %56, i64 0, i64 %58
  store i32 %54, ptr %59, align 4, !tbaa !38
  %60 = load ptr, ptr %3, align 8, !tbaa !74
  %61 = getelementptr inbounds nuw %struct.Model, ptr %60, i32 0, i32 0
  %62 = load i32, ptr %5, align 4, !tbaa !38
  %63 = sext i32 %62 to i64
  %64 = getelementptr inbounds [16 x i32], ptr %61, i64 0, i64 %63
  %65 = load i32, ptr %64, align 4, !tbaa !38
  %66 = load ptr, ptr %3, align 8, !tbaa !74
  %67 = getelementptr inbounds nuw %struct.Model, ptr %66, i32 0, i32 3
  %68 = load i32, ptr %67, align 4, !tbaa !82
  %69 = add nsw i32 %68, %65
  store i32 %69, ptr %67, align 4, !tbaa !82
  br label %70

70:                                               ; preds = %46
  %71 = load i32, ptr %5, align 4, !tbaa !38
  %72 = add nsw i32 %71, 1
  store i32 %72, ptr %5, align 4, !tbaa !38
  br label %40, !llvm.loop !86

73:                                               ; preds = %40
  br label %74

74:                                               ; preds = %73, %25
  %75 = load ptr, ptr %3, align 8, !tbaa !74
  %76 = getelementptr inbounds nuw %struct.Model, ptr %75, i32 0, i32 3
  %77 = load i32, ptr %76, align 4, !tbaa !82
  %78 = udiv i32 -2147483648, %77
  store i32 %78, ptr %7, align 4, !tbaa !38
  store i32 0, ptr %5, align 4, !tbaa !38
  br label %79

79:                                               ; preds = %103, %74
  %80 = load i32, ptr %5, align 4, !tbaa !38
  %81 = load ptr, ptr %3, align 8, !tbaa !74
  %82 = getelementptr inbounds nuw %struct.Model, ptr %81, i32 0, i32 2
  %83 = load i32, ptr %82, align 4, !tbaa !76
  %84 = icmp slt i32 %80, %83
  br i1 %84, label %85, label %106

85:                                               ; preds = %79
  %86 = load i32, ptr %6, align 4, !tbaa !38
  %87 = load i32, ptr %7, align 4, !tbaa !38
  %88 = mul i32 %86, %87
  %89 = lshr i32 %88, 16
  %90 = load ptr, ptr %3, align 8, !tbaa !74
  %91 = getelementptr inbounds nuw %struct.Model, ptr %90, i32 0, i32 1
  %92 = load i32, ptr %5, align 4, !tbaa !38
  %93 = sext i32 %92 to i64
  %94 = getelementptr inbounds [16 x i32], ptr %91, i64 0, i64 %93
  store i32 %89, ptr %94, align 4, !tbaa !38
  %95 = load ptr, ptr %3, align 8, !tbaa !74
  %96 = getelementptr inbounds nuw %struct.Model, ptr %95, i32 0, i32 0
  %97 = load i32, ptr %5, align 4, !tbaa !38
  %98 = sext i32 %97 to i64
  %99 = getelementptr inbounds [16 x i32], ptr %96, i64 0, i64 %98
  %100 = load i32, ptr %99, align 4, !tbaa !38
  %101 = load i32, ptr %6, align 4, !tbaa !38
  %102 = add nsw i32 %101, %100
  store i32 %102, ptr %6, align 4, !tbaa !38
  br label %103

103:                                              ; preds = %85
  %104 = load i32, ptr %5, align 4, !tbaa !38
  %105 = add nsw i32 %104, 1
  store i32 %105, ptr %5, align 4, !tbaa !38
  br label %79, !llvm.loop !87

106:                                              ; preds = %79
  %107 = load ptr, ptr %3, align 8, !tbaa !74
  %108 = getelementptr inbounds nuw %struct.Model, ptr %107, i32 0, i32 4
  %109 = load i32, ptr %108, align 4, !tbaa !84
  %110 = mul nsw i32 %109, 5
  %111 = ashr i32 %110, 2
  %112 = load ptr, ptr %3, align 8, !tbaa !74
  %113 = getelementptr inbounds nuw %struct.Model, ptr %112, i32 0, i32 4
  store i32 %111, ptr %113, align 4, !tbaa !84
  %114 = load ptr, ptr %3, align 8, !tbaa !74
  %115 = getelementptr inbounds nuw %struct.Model, ptr %114, i32 0, i32 4
  %116 = load i32, ptr %115, align 4, !tbaa !84
  %117 = load ptr, ptr %3, align 8, !tbaa !74
  %118 = getelementptr inbounds nuw %struct.Model, ptr %117, i32 0, i32 5
  %119 = load i32, ptr %118, align 4, !tbaa !77
  %120 = icmp sgt i32 %116, %119
  br i1 %120, label %121, label %127

121:                                              ; preds = %106
  %122 = load ptr, ptr %3, align 8, !tbaa !74
  %123 = getelementptr inbounds nuw %struct.Model, ptr %122, i32 0, i32 5
  %124 = load i32, ptr %123, align 4, !tbaa !77
  %125 = load ptr, ptr %3, align 8, !tbaa !74
  %126 = getelementptr inbounds nuw %struct.Model, ptr %125, i32 0, i32 4
  store i32 %124, ptr %126, align 4, !tbaa !84
  br label %127

127:                                              ; preds = %121, %106
  %128 = load ptr, ptr %3, align 8, !tbaa !74
  %129 = getelementptr inbounds nuw %struct.Model, ptr %128, i32 0, i32 4
  %130 = load i32, ptr %129, align 4, !tbaa !84
  %131 = load ptr, ptr %3, align 8, !tbaa !74
  %132 = getelementptr inbounds nuw %struct.Model, ptr %131, i32 0, i32 6
  store i32 %130, ptr %132, align 4, !tbaa !85
  store i32 0, ptr %8, align 4
  br label %133

133:                                              ; preds = %127, %24
  call void @llvm.lifetime.end.p0(i64 4, ptr %7) #8
  call void @llvm.lifetime.end.p0(i64 4, ptr %6) #8
  call void @llvm.lifetime.end.p0(i64 4, ptr %5) #8
  %134 = load i32, ptr %8, align 4
  switch i32 %134, label %136 [
    i32 0, label %135
    i32 1, label %135
  ]

135:                                              ; preds = %133, %133
  ret void

136:                                              ; preds = %133
  unreachable
}

; Function Attrs: nounwind uwtable
define internal void @model_reset(ptr noundef %0) #1 {
  %2 = alloca ptr, align 8
  %3 = alloca i32, align 4
  store ptr %0, ptr %2, align 8, !tbaa !74
  call void @llvm.lifetime.start.p0(i64 4, ptr %3) #8
  %4 = load ptr, ptr %2, align 8, !tbaa !74
  %5 = getelementptr inbounds nuw %struct.Model, ptr %4, i32 0, i32 3
  store i32 0, ptr %5, align 4, !tbaa !82
  store i32 0, ptr %3, align 4, !tbaa !38
  br label %6

6:                                                ; preds = %19, %1
  %7 = load i32, ptr %3, align 4, !tbaa !38
  %8 = load ptr, ptr %2, align 8, !tbaa !74
  %9 = getelementptr inbounds nuw %struct.Model, ptr %8, i32 0, i32 2
  %10 = load i32, ptr %9, align 4, !tbaa !76
  %11 = sub nsw i32 %10, 1
  %12 = icmp slt i32 %7, %11
  br i1 %12, label %13, label %22

13:                                               ; preds = %6
  %14 = load ptr, ptr %2, align 8, !tbaa !74
  %15 = getelementptr inbounds nuw %struct.Model, ptr %14, i32 0, i32 0
  %16 = load i32, ptr %3, align 4, !tbaa !38
  %17 = sext i32 %16 to i64
  %18 = getelementptr inbounds [16 x i32], ptr %15, i64 0, i64 %17
  store i32 1, ptr %18, align 4, !tbaa !38
  br label %19

19:                                               ; preds = %13
  %20 = load i32, ptr %3, align 4, !tbaa !38
  %21 = add nsw i32 %20, 1
  store i32 %21, ptr %3, align 4, !tbaa !38
  br label %6, !llvm.loop !83

22:                                               ; preds = %6
  %23 = load ptr, ptr %2, align 8, !tbaa !74
  %24 = getelementptr inbounds nuw %struct.Model, ptr %23, i32 0, i32 0
  %25 = load ptr, ptr %2, align 8, !tbaa !74
  %26 = getelementptr inbounds nuw %struct.Model, ptr %25, i32 0, i32 2
  %27 = load i32, ptr %26, align 4, !tbaa !76
  %28 = sub nsw i32 %27, 1
  %29 = sext i32 %28 to i64
  %30 = getelementptr inbounds [16 x i32], ptr %24, i64 0, i64 %29
  store i32 0, ptr %30, align 4, !tbaa !38
  %31 = load ptr, ptr %2, align 8, !tbaa !74
  %32 = getelementptr inbounds nuw %struct.Model, ptr %31, i32 0, i32 2
  %33 = load i32, ptr %32, align 4, !tbaa !76
  %34 = load ptr, ptr %2, align 8, !tbaa !74
  %35 = getelementptr inbounds nuw %struct.Model, ptr %34, i32 0, i32 4
  store i32 %33, ptr %35, align 4, !tbaa !84
  %36 = load ptr, ptr %2, align 8, !tbaa !74
  %37 = getelementptr inbounds nuw %struct.Model, ptr %36, i32 0, i32 6
  store i32 1, ptr %37, align 4, !tbaa !85
  %38 = load ptr, ptr %2, align 8, !tbaa !74
  %39 = load ptr, ptr %2, align 8, !tbaa !74
  %40 = getelementptr inbounds nuw %struct.Model, ptr %39, i32 0, i32 2
  %41 = load i32, ptr %40, align 4, !tbaa !76
  %42 = sub nsw i32 %41, 1
  call void @model_update(ptr noundef %38, i32 noundef %42)
  %43 = load ptr, ptr %2, align 8, !tbaa !74
  %44 = getelementptr inbounds nuw %struct.Model, ptr %43, i32 0, i32 2
  %45 = load i32, ptr %44, align 4, !tbaa !76
  %46 = add nsw i32 %45, 6
  %47 = ashr i32 %46, 1
  %48 = load ptr, ptr %2, align 8, !tbaa !74
  %49 = getelementptr inbounds nuw %struct.Model, ptr %48, i32 0, i32 4
  store i32 %47, ptr %49, align 4, !tbaa !84
  %50 = load ptr, ptr %2, align 8, !tbaa !74
  %51 = getelementptr inbounds nuw %struct.Model, ptr %50, i32 0, i32 6
  store i32 %47, ptr %51, align 4, !tbaa !85
  call void @llvm.lifetime.end.p0(i64 4, ptr %3) #8
  ret void
}