; Function Attrs: nofree norecurse nosync nounwind memory(argmem: readwrite) uwtable
define internal fastcc void @model_reset(ptr noundef captures(none) initializes((132, 136)) %0) unnamed_addr #5 {
  %2 = getelementptr inbounds nuw i8, ptr %0, i64 132
  store i32 0, ptr %2, align 4, !tbaa !84
  %3 = getelementptr inbounds nuw i8, ptr %0, i64 128
  %4 = load i32, ptr %3, align 4, !tbaa !73
  %5 = icmp sgt i32 %4, 1
  br i1 %5, label %.lr.ph, label %.._crit_edge_crit_edge

.._crit_edge_crit_edge:                           ; preds = %1
  %6 = add nsw i32 %4, -1
  %.pre23 = sext i32 %6 to i64
  br label %._crit_edge

.lr.ph:                                           ; preds = %1, %.lr.ph
  %indvars.iv = phi i64 [ %indvars.iv.next, %.lr.ph ], [ 0, %1 ]
  %7 = getelementptr inbounds nuw [16 x i32], ptr %0, i64 0, i64 %indvars.iv
  store i32 1, ptr %7, align 4, !tbaa !56
  %indvars.iv.next = add nuw nsw i64 %indvars.iv, 1
  %8 = load i32, ptr %3, align 4, !tbaa !73
  %9 = add nsw i32 %8, -1
  %10 = sext i32 %9 to i64
  %11 = icmp slt i64 %indvars.iv.next, %10
  br i1 %11, label %.lr.ph, label %._crit_edge, !llvm.loop !85

._crit_edge:                                      ; preds = %.lr.ph, %.._crit_edge_crit_edge
  %.pre-phi = phi i64 [ %.pre23, %.._crit_edge_crit_edge ], [ %10, %.lr.ph ]
  %12 = getelementptr inbounds [16 x i32], ptr %0, i64 0, i64 %.pre-phi
  store i32 0, ptr %12, align 4, !tbaa !56
  %13 = load i32, ptr %3, align 4, !tbaa !73
  %14 = getelementptr inbounds nuw i8, ptr %0, i64 136
  store i32 %13, ptr %14, align 4, !tbaa !86
  %15 = getelementptr inbounds nuw i8, ptr %0, i64 144
  store i32 1, ptr %15, align 4, !tbaa !87
  %16 = add nsw i32 %13, -1
  %17 = sext i32 %16 to i64
  %18 = getelementptr inbounds [16 x i32], ptr %0, i64 0, i64 %17
  %19 = load i32, ptr %18, align 4, !tbaa !56
  %20 = add nsw i32 %19, 1
  store i32 %20, ptr %18, align 4, !tbaa !56
  %21 = load i32, ptr %15, align 4, !tbaa !87
  %22 = add nsw i32 %21, -1
  store i32 %22, ptr %15, align 4, !tbaa !87
  %.not.i = icmp eq i32 %22, 0
  br i1 %.not.i, label %23, label %._crit_edge.model_update.exit_crit_edge

._crit_edge.model_update.exit_crit_edge:          ; preds = %._crit_edge
  %.pre = load i32, ptr %3, align 4, !tbaa !73
  br label %model_update.exit

23:                                               ; preds = %._crit_edge
  %24 = load i32, ptr %14, align 4, !tbaa !86
  %25 = load i32, ptr %2, align 4, !tbaa !84
  %26 = add nsw i32 %25, %24
  store i32 %26, ptr %2, align 4, !tbaa !84
  %27 = icmp sgt i32 %26, 32768
  br i1 %27, label %28, label %..loopexit_crit_edge.i

..loopexit_crit_edge.i:                           ; preds = %23
  %.pre.i = load i32, ptr %3, align 4, !tbaa !73
  br label %.loopexit.i

28:                                               ; preds = %23
  store i32 0, ptr %2, align 4, !tbaa !84
  %29 = load i32, ptr %3, align 4, !tbaa !73
  %30 = icmp sgt i32 %29, 0
  br i1 %30, label %.lr.ph.i, label %model_update.exit

.lr.ph.i:                                         ; preds = %28, %.lr.ph.i
  %indvars.iv.i = phi i64 [ %indvars.iv.next.i, %.lr.ph.i ], [ 0, %28 ]
  %31 = getelementptr inbounds nuw [16 x i32], ptr %0, i64 0, i64 %indvars.iv.i
  %32 = load i32, ptr %31, align 4, !tbaa !56
  %33 = add nsw i32 %32, 1
  %34 = ashr i32 %33, 1
  store i32 %34, ptr %31, align 4, !tbaa !56
  %35 = load i32, ptr %2, align 4, !tbaa !84
  %36 = add nsw i32 %35, %34
  store i32 %36, ptr %2, align 4, !tbaa !84
  %indvars.iv.next.i = add nuw nsw i64 %indvars.iv.i, 1
  %37 = load i32, ptr %3, align 4, !tbaa !73
  %38 = sext i32 %37 to i64
  %39 = icmp slt i64 %indvars.iv.next.i, %38
  br i1 %39, label %.lr.ph.i, label %.loopexit.i, !llvm.loop !88

.loopexit.i:                                      ; preds = %.lr.ph.i, %..loopexit_crit_edge.i
  %40 = phi i32 [ %.pre.i, %..loopexit_crit_edge.i ], [ %37, %.lr.ph.i ]
  %41 = phi i32 [ %26, %..loopexit_crit_edge.i ], [ %36, %.lr.ph.i ]
  %42 = udiv i32 -2147483648, %41
  %43 = icmp sgt i32 %40, 0
  br i1 %43, label %.lr.ph41.i, label %model_update.exit

.lr.ph41.i:                                       ; preds = %.loopexit.i
  %44 = getelementptr inbounds nuw i8, ptr %0, i64 64
  br label %45

45:                                               ; preds = %45, %.lr.ph41.i
  %indvars.iv43.i = phi i64 [ 0, %.lr.ph41.i ], [ %indvars.iv.next44.i, %45 ]
  %.03639.i = phi i32 [ 0, %.lr.ph41.i ], [ %51, %45 ]
  %46 = mul i32 %.03639.i, %42
  %47 = lshr i32 %46, 16
  %48 = getelementptr inbounds nuw [16 x i32], ptr %44, i64 0, i64 %indvars.iv43.i
  store i32 %47, ptr %48, align 4, !tbaa !56
  %49 = getelementptr inbounds nuw [16 x i32], ptr %0, i64 0, i64 %indvars.iv43.i
  %50 = load i32, ptr %49, align 4, !tbaa !56
  %51 = add nsw i32 %50, %.03639.i
  %indvars.iv.next44.i = add nuw nsw i64 %indvars.iv43.i, 1
  %52 = load i32, ptr %3, align 4, !tbaa !73
  %53 = sext i32 %52 to i64
  %54 = icmp slt i64 %indvars.iv.next44.i, %53
  br i1 %54, label %45, label %model_update.exit, !llvm.loop !89

model_update.exit:                                ; preds = %45, %28, %.loopexit.i, %._crit_edge.model_update.exit_crit_edge
  %55 = phi i32 [ %.pre, %._crit_edge.model_update.exit_crit_edge ], [ %40, %.loopexit.i ], [ %29, %28 ], [ %52, %45 ]
  %56 = add nsw i32 %55, 6
  %57 = ashr i32 %56, 1
  store i32 %57, ptr %14, align 4, !tbaa !86
  store i32 %57, ptr %15, align 4, !tbaa !87
  ret void
}